(dp1
S'OriginalConfig'
p2
ccopy_reg
_reconstructor
p3
(cWMCore.Configuration
Configuration
p4
c__builtin__
object
p5
NtRp6
(dp7
S'Site'
p8
g3
(cWMCore.Configuration
ConfigSection
p9
g5
NtRp10
(dp11
S'_internal_skipChecks'
p12
I00
sS'_internal_documentation'
p13
S''
sS'_internal_settings'
p14
c__builtin__
set
p15
((lp16
S'storageSite'
p17
atRp18
sS'_internal_name'
p19
g8
sS'_internal_docstrings'
p20
(dp21
sS'_internal_children'
p22
g15
((ltRp23
sg17
S'T2_US_Wisconsin'
p24
sS'_internal_parent_ref'
p25
NsbsS'_internal_sections'
p26
(lp27
S'General'
p28
aS'JobType'
p29
aS'Data'
p30
ag8
aS'User'
p31
aS'Debug'
p32
asg28
g3
(g9
g5
NtRp33
(dp34
S'transferLogs'
p35
I01
sg12
I00
sg13
S''
sg14
g15
((lp36
g35
aS'workArea'
p37
aS'requestName'
p38
atRp39
sg19
g28
sg20
(dp40
sg22
g15
((ltRp41
sg38
S'TTTo2L2Nu'
p42
sg25
Nsg37
S'MC2'
p43
sbsS'_internal_webapps'
p44
(lp45
sg31
g3
(g9
g5
NtRp46
(dp47
g12
I00
sg13
S''
sg14
g15
((ltRp48
sg19
g31
sg20
(dp49
sg22
g15
((ltRp50
sg25
NsbsS'_internal_components'
p51
(lp52
sg32
g3
(g9
g5
NtRp53
(dp54
g12
I00
sg13
S''
sg14
g15
((ltRp55
sg19
g32
sg20
(dp56
sg22
g15
((ltRp57
sg25
Nsbsg30
g3
(g9
g5
NtRp58
(dp59
S'inputDataset'
p60
S'/TTTo2L2Nu_TuneCUETP8M2_ttHtranche3_13TeV-powheg-pythia8/RunIISummer16NanoAODv6-PUMoriond17_Nano25Oct2019_102X_mcRun2_asymptotic_v7-v1/NANOAODSIM'
p61
sS'outputDatasetTag'
p62
S'MC2'
p63
sg12
I00
sS'splitting'
p64
S'FileBased'
p65
sS'unitsPerJob'
p66
I1
sg13
S''
sg14
g15
((lp67
g60
ag62
aS'publication'
p68
ag66
aS'inputDBS'
p69
ag64
aS'outLFNDirBase'
p70
atRp71
sg19
g30
sg69
S'global'
p72
sg20
(dp73
sg22
g15
((ltRp74
sg70
S'/store/user/vshang/ttbarPlusJets'
p75
sg25
Nsg68
I00
sbsg29
g3
(g9
g5
NtRp76
(dp77
g12
I00
sg13
S''
sg14
g15
((lp78
S'scriptExe'
p79
aS'pluginName'
p80
aS'sendPythonFolder'
p81
aS'allowUndistributedCMSSW'
p82
aS'psetName'
p83
aS'inputFiles'
p84
atRp85
sg19
g29
sg79
S'crab_script.sh'
p86
sg20
(dp87
sg81
I01
sg80
S'Analysis'
p88
sg22
g15
((ltRp89
sg82
I01
sg83
S'PSet.py'
p90
sg25
Nsg84
(lp91
S'crab_script.py'
p92
aS'../scripts/haddnano.py'
p93
asbsbsS'voGroup'
p94
S''
sS'Server'
p95
S'cmsweb.cern.ch'
p96
sS'instance'
p97
S'prod'
p98
sS'RequestName'
p99
V200128_164015:vshang_crab_TTTo2L2Nu
p100
sS'voRole'
p101
S'NULL'
p102
sS'Port'
p103
S''
s.